; Function Attrs: nounwind uwtable
define i32 @EVP_RAND_instantiate(ptr noundef readonly captures(none) %0, i32 noundef %1, i32 noundef %2, ptr noundef %3, i64 noundef %4, ptr noundef %5) local_unnamed_addr #0 {
  %7 = load ptr, ptr %0, align 8, !tbaa !3
  %8 = getelementptr inbounds nuw i8, ptr %7, i64 112
  %9 = load ptr, ptr %8, align 8, !tbaa !37
  %.not.i = icmp eq ptr %9, null
  br i1 %.not.i, label %evp_rand_lock.exit.thread, label %evp_rand_lock.exit

evp_rand_lock.exit:                               ; preds = %6
  %10 = getelementptr inbounds nuw i8, ptr %0, i64 8
  %11 = load ptr, ptr %10, align 8, !tbaa !17
  %12 = tail call i32 %9(ptr noundef %11) #8
  %.not = icmp eq i32 %12, 0
  br i1 %.not, label %evp_rand_unlock.exit, label %evp_rand_lock.exit.evp_rand_lock.exit.thread_crit_edge

evp_rand_lock.exit.evp_rand_lock.exit.thread_crit_edge: ; preds = %evp_rand_lock.exit
  %.val.pre = load ptr, ptr %0, align 8, !tbaa !3
  br label %evp_rand_lock.exit.thread

evp_rand_lock.exit.thread:                        ; preds = %evp_rand_lock.exit.evp_rand_lock.exit.thread_crit_edge, %6
  %.val = phi ptr [ %.val.pre, %evp_rand_lock.exit.evp_rand_lock.exit.thread_crit_edge ], [ %7, %6 ]
  %13 = getelementptr i8, ptr %0, i64 8
  %.val9 = load ptr, ptr %13, align 8, !tbaa !17
  %14 = getelementptr i8, ptr %.val, i64 64
  %.val.val = load ptr, ptr %14, align 8, !tbaa !32
  %15 = tail call i32 %.val.val(ptr noundef %.val9, i32 noundef %1, i32 noundef %2, ptr noundef %3, i64 noundef %4, ptr noundef %5) #8
  %16 = load ptr, ptr %0, align 8, !tbaa !3
  %17 = getelementptr inbounds nuw i8, ptr %16, i64 120
  %18 = load ptr, ptr %17, align 8, !tbaa !38
  %.not.i10 = icmp eq ptr %18, null
  br i1 %.not.i10, label %evp_rand_unlock.exit, label %19

19:                                               ; preds = %evp_rand_lock.exit.thread
  %20 = load ptr, ptr %13, align 8, !tbaa !17
  tail call void %18(ptr noundef %20) #8
  br label %evp_rand_unlock.exit

evp_rand_unlock.exit:                             ; preds = %19, %evp_rand_lock.exit.thread, %evp_rand_lock.exit
  %.0 = phi i32 [ 0, %evp_rand_lock.exit ], [ %15, %evp_rand_lock.exit.thread ], [ %15, %19 ]
  ret i32 %.0
}